#include <math.h>
#include <stdio.h>
#include <stdlib.h>
#include <string.h>


int main(){
int n;
int a,e;
a=0;
scanf("%d",&n);
if(n==1){
	printf("End");
}
else if(n!=1){
	a=n;
	for(;a!=1;){
		if(a%2==0){
			e=a;
			a=a/2;
			printf("%d/2=%d\n",e,a);
			if(a==1){
				printf("End");
				break;
			}
		}
		else if(a%2==1){
			e=a;
			a=a*3+1;
			printf("%d*3+1=%d\n",e,a);
			if(a==1){
				printf("End");
			break;
			}
		}
	}
}
return 0;
}