; ModuleID = '34/889.c'
source_filename = "34/889.c"
target datalayout = "e-m:e-p270:32:32-p271:32:32-p272:64:64-i64:64-f80:128-n8:16:32:64-S128"
target triple = "x86_64-pc-linux-gnu"

@.str = private unnamed_addr constant [3 x i8] c"%d\00", align 1
@.str.1 = private unnamed_addr constant [4 x i8] c"End\00", align 1
@.str.2 = private unnamed_addr constant [9 x i8] c"%d/2=%d\0A\00", align 1
@.str.3 = private unnamed_addr constant [11 x i8] c"%d*3+1=%d\0A\00", align 1

; Function Attrs: noinline nounwind uwtable
define dso_local i32 @main() #0 {
  %1 = alloca i32, align 4
  %2 = alloca i32, align 4
  %3 = alloca i32, align 4
  %4 = alloca i32, align 4
  store i32 0, i32* %1, align 4
  store i32 0, i32* %3, align 4
  %5 = call i32 (i8*, ...) @__isoc99_scanf(i8* getelementptr inbounds ([3 x i8], [3 x i8]* @.str, i64 0, i64 0), i32* %2)
  %6 = load i32, i32* %2, align 4
  %7 = icmp eq i32 %6, 1
  br i1 %7, label %8, label %10

8:                                                ; preds = %0
  %9 = call i32 (i8*, ...) @printf(i8* getelementptr inbounds ([4 x i8], [4 x i8]* @.str.1, i64 0, i64 0))
  br label %55

10:                                               ; preds = %0
  %11 = load i32, i32* %2, align 4
  %12 = icmp ne i32 %11, 1
  br i1 %12, label %13, label %54

13:                                               ; preds = %10
  %14 = load i32, i32* %2, align 4
  store i32 %14, i32* %3, align 4
  br label %15

15:                                               ; preds = %52, %13
  %16 = load i32, i32* %3, align 4
  %17 = icmp ne i32 %16, 1
  br i1 %17, label %18, label %53

18:                                               ; preds = %15
  %19 = load i32, i32* %3, align 4
  %20 = srem i32 %19, 2
  %21 = icmp eq i32 %20, 0
  br i1 %21, label %22, label %34

22:                                               ; preds = %18
  %23 = load i32, i32* %3, align 4
  store i32 %23, i32* %4, align 4
  %24 = load i32, i32* %3, align 4
  %25 = sdiv i32 %24, 2
  store i32 %25, i32* %3, align 4
  %26 = load i32, i32* %4, align 4
  %27 = load i32, i32* %3, align 4
  %28 = call i32 (i8*, ...) @printf(i8* getelementptr inbounds ([9 x i8], [9 x i8]* @.str.2, i64 0, i64 0), i32 %26, i32 %27)
  %29 = load i32, i32* %3, align 4
  %30 = icmp eq i32 %29, 1
  br i1 %30, label %31, label %33

31:                                               ; preds = %22
  %32 = call i32 (i8*, ...) @printf(i8* getelementptr inbounds ([4 x i8], [4 x i8]* @.str.1, i64 0, i64 0))
  br label %53

33:                                               ; preds = %22
  br label %52

34:                                               ; preds = %18
  %35 = load i32, i32* %3, align 4
  %36 = srem i32 %35, 2
  %37 = icmp eq i32 %36, 1
  br i1 %37, label %38, label %51

38:                                               ; preds = %34
  %39 = load i32, i32* %3, align 4
  store i32 %39, i32* %4, align 4
  %40 = load i32, i32* %3, align 4
  %41 = mul nsw i32 %40, 3
  %42 = add nsw i32 %41, 1
  store i32 %42, i32* %3, align 4
  %43 = load i32, i32* %4, align 4
  %44 = load i32, i32* %3, align 4
  %45 = call i32 (i8*, ...) @printf(i8* getelementptr inbounds ([11 x i8], [11 x i8]* @.str.3, i64 0, i64 0), i32 %43, i32 %44)
  %46 = load i32, i32* %3, align 4
  %47 = icmp eq i32 %46, 1
  br i1 %47, label %48, label %50

48:                                               ; preds = %38
  %49 = call i32 (i8*, ...) @printf(i8* getelementptr inbounds ([4 x i8], [4 x i8]* @.str.1, i64 0, i64 0))
  br label %53

50:                                               ; preds = %38
  br label %51

51:                                               ; preds = %50, %34
  br label %52

52:                                               ; preds = %51, %33
  br label %15

53:                                               ; preds = %48, %31, %15
  br label %54

54:                                               ; preds = %53, %10
  br label %55

55:                                               ; preds = %54, %8
  ret i32 0
}

declare dso_local i32 @__isoc99_scanf(i8*, ...) #1

declare dso_local i32 @printf(i8*, ...) #1


!llvm.module.flags = !{!0}
!llvm.ident = !{!1}

!0 = !{i32 1, !"wchar_size", i32 4}
!1 = !{!"clang version 10.0.0-4ubuntu1 "}
